; Function Attrs: nounwind uwtable
define range(i32 -22, 1) i32 @CVodeSetIterType(ptr noundef %0, i32 noundef %1) local_unnamed_addr #0 {
  %3 = icmp eq ptr %0, null
  br i1 %3, label %4, label %5

4:                                                ; preds = %2
  tail call void (ptr, i32, ptr, ptr, ptr, ...) @cvProcessError(ptr noundef null, i32 noundef -21, ptr noundef nonnull @.str, ptr noundef nonnull @.str.4, ptr noundef nonnull @.str.2) #6
  br label %10

5:                                                ; preds = %2
  %6 = add i32 %1, -3
  %or.cond = icmp ult i32 %6, -2
  br i1 %or.cond, label %7, label %8

7:                                                ; preds = %5
  tail call void (ptr, i32, ptr, ptr, ptr, ...) @cvProcessError(ptr noundef nonnull %0, i32 noundef -22, ptr noundef nonnull @.str, ptr noundef nonnull @.str.4, ptr noundef nonnull @.str.5) #6
  br label %10

8:                                                ; preds = %5
  %9 = getelementptr inbounds nuw i8, ptr %0, i64 28
  store i32 %1, ptr %9, align 4, !tbaa !20
  br label %10

10:                                               ; preds = %8, %7, %4
  %.0 = phi i32 [ -21, %4 ], [ -22, %7 ], [ 0, %8 ]
  ret i32 %.0
}